target datalayout = "e-m:e-p270:32:32-p271:32:32-p272:64:64-i64:64-i128:128-f80:128-n8:16:32:64-S128"
target triple = "x86_64-pc-linux-gnu"

%struct._zval_struct = type { %union._zend_value, %union.anon, %union.anon.2 }
%union._zend_value = type { i64 }
%union.anon = type { i32 }
%union.anon.2 = type { i32 }
%struct._zend_refcounted_h = type { i32, %union.anon.3 }
%union.anon.3 = type { i32 }
%struct._zend_object_iterator_funcs = type { ptr, ptr, ptr, ptr, ptr, ptr, ptr, ptr }
%struct._zend_object = type { %struct._zend_refcounted_h, i32, ptr, ptr, ptr, [1 x %struct._zval_struct] }
%struct._zend_user_iterator = type { %struct._zend_object_iterator, ptr, %struct._zval_struct }
%struct._zend_object_iterator = type { %struct._zend_object, %struct._zval_struct, ptr, i64 }

@.str.28 = private unnamed_addr constant [53 x i8] c"An iterator cannot be used with foreach by reference\00", align 1
@spl_pqueue_it_funcs = internal constant %struct._zend_object_iterator_funcs { ptr @spl_heap_it_dtor, ptr @spl_heap_it_valid, ptr @spl_pqueue_it_get_current_data, ptr @spl_heap_it_get_current_key, ptr @spl_heap_it_move_forward, ptr @spl_heap_it_rewind, ptr null, ptr null }, align 8

; Function Attrs: nounwind uwtable
define internal ptr @spl_pqueue_get_iterator(ptr noundef %0, ptr noundef %1, i32 noundef %2) #0 {
  %4 = alloca ptr, align 8
  %5 = alloca ptr, align 8
  %6 = alloca ptr, align 8
  %7 = alloca ptr, align 8
  %8 = alloca i32, align 4
  %9 = alloca ptr, align 8
  %10 = alloca ptr, align 8
  %11 = alloca ptr, align 8
  store ptr %0, ptr %6, align 8
  store ptr %1, ptr %7, align 8
  store i32 %2, ptr %8, align 4
  %12 = load i32, ptr %8, align 4
  %13 = icmp ne i32 %12, 0
  br i1 %13, label %14, label %15

14:                                               ; preds = %3
  call void (ptr, ptr, ...) @zend_throw_error(ptr noundef null, ptr noundef @.str.28)
  store ptr null, ptr %5, align 8
  br label %50

15:                                               ; preds = %3
  %16 = call noalias ptr @_emalloc_112()
  store ptr %16, ptr %9, align 8
  %17 = load ptr, ptr %9, align 8
  %18 = getelementptr inbounds %struct._zend_user_iterator, ptr %17, i32 0, i32 0
  call void @zend_iterator_init(ptr noundef %18)
  br label %19

19:                                               ; preds = %15
  %20 = load ptr, ptr %9, align 8
  %21 = getelementptr inbounds %struct._zend_user_iterator, ptr %20, i32 0, i32 0
  %22 = getelementptr inbounds %struct._zend_object_iterator, ptr %21, i32 0, i32 1
  store ptr %22, ptr %10, align 8
  %23 = load ptr, ptr %7, align 8
  %24 = getelementptr inbounds %struct._zval_struct, ptr %23, i32 0, i32 0
  %25 = load ptr, ptr %24, align 8
  store ptr %25, ptr %11, align 8
  %26 = load ptr, ptr %11, align 8
  %27 = getelementptr inbounds %struct._zend_object, ptr %26, i32 0, i32 0
  store ptr %27, ptr %4, align 8
  %28 = load ptr, ptr %4, align 8
  %29 = load i32, ptr %28, align 4
  %30 = add i32 %29, 1
  store i32 %30, ptr %28, align 4
  %31 = load ptr, ptr %11, align 8
  %32 = load ptr, ptr %10, align 8
  %33 = getelementptr inbounds %struct._zval_struct, ptr %32, i32 0, i32 0
  store ptr %31, ptr %33, align 8
  %34 = load ptr, ptr %10, align 8
  %35 = getelementptr inbounds %struct._zval_struct, ptr %34, i32 0, i32 1
  store i32 776, ptr %35, align 8
  br label %36

36:                                               ; preds = %19
  %37 = load ptr, ptr %9, align 8
  %38 = getelementptr inbounds %struct._zend_user_iterator, ptr %37, i32 0, i32 0
  %39 = getelementptr inbounds %struct._zend_object_iterator, ptr %38, i32 0, i32 2
  store ptr @spl_pqueue_it_funcs, ptr %39, align 8
  %40 = load ptr, ptr %6, align 8
  %41 = load ptr, ptr %9, align 8
  %42 = getelementptr inbounds %struct._zend_user_iterator, ptr %41, i32 0, i32 1
  store ptr %40, ptr %42, align 8
  br label %43

43:                                               ; preds = %36
  %44 = load ptr, ptr %9, align 8
  %45 = getelementptr inbounds %struct._zend_user_iterator, ptr %44, i32 0, i32 2
  %46 = getelementptr inbounds %struct._zval_struct, ptr %45, i32 0, i32 1
  store i32 0, ptr %46, align 8
  br label %47

47:                                               ; preds = %43
  %48 = load ptr, ptr %9, align 8
  %49 = getelementptr inbounds %struct._zend_user_iterator, ptr %48, i32 0, i32 0
  store ptr %49, ptr %5, align 8
  br label %50

50:                                               ; preds = %47, %14
  %51 = load ptr, ptr %5, align 8
  ret ptr %51
}